target datalayout = "e-m:e-p270:32:32-p271:32:32-p272:64:64-i64:64-i128:128-f80:128-n8:16:32:64-S128"
target triple = "x86_64-pc-linux-gnu"

%class.JvmtiDeferredEvent = type { i32, %union.anon.8 }
%union.anon.8 = type { %struct.anon.10 }
%struct.anon.10 = type { ptr, ptr, ptr }
%struct.anon.9 = type { ptr, ptr }
%struct.anon.11 = type { ptr }

@g_assert_poison = external global ptr, align 8
@.str.6 = private unnamed_addr constant [38 x i8] c"src/hotspot/share/prims/jvmtiImpl.cpp\00", align 1
@.str.7 = private unnamed_addr constant [13 x i8] c"unknown_code\00", align 1
@.str.8 = private unnamed_addr constant [14 x i8] c"unknown_class\00", align 1

; Function Attrs: mustprogress nounwind uwtable
define hidden void @_ZN18JvmtiDeferredEvent4postEv(ptr noundef nonnull align 8 dereferenceable(32) %0) #1 align 2 {
  %2 = alloca ptr, align 8
  %3 = alloca ptr, align 8
  store ptr %0, ptr %2, align 8
  %4 = load ptr, ptr %2, align 8
  %5 = getelementptr inbounds %class.JvmtiDeferredEvent, ptr %4, i32 0, i32 0
  %6 = load i32, ptr %5, align 8
  switch i32 %6, label %66 [
    i32 1, label %7
    i32 2, label %11
    i32 3, label %18
    i32 4, label %45
  ]

7:                                                ; preds = %1
  %8 = getelementptr inbounds %class.JvmtiDeferredEvent, ptr %4, i32 0, i32 1
  %9 = load ptr, ptr %8, align 8
  store ptr %9, ptr %3, align 8
  %10 = load ptr, ptr %3, align 8
  call void @_ZN11JvmtiExport25post_compiled_method_loadEP7nmethod(ptr noundef %10)
  br label %70

11:                                               ; preds = %1
  %12 = getelementptr inbounds %class.JvmtiDeferredEvent, ptr %4, i32 0, i32 1
  %13 = getelementptr inbounds %struct.anon.9, ptr %12, i32 0, i32 0
  %14 = load ptr, ptr %13, align 8
  %15 = getelementptr inbounds %class.JvmtiDeferredEvent, ptr %4, i32 0, i32 1
  %16 = getelementptr inbounds %struct.anon.9, ptr %15, i32 0, i32 1
  %17 = load ptr, ptr %16, align 8
  call void @_ZN11JvmtiExport27post_compiled_method_unloadEP10_jmethodIDPKv(ptr noundef %14, ptr noundef %17)
  br label %70

18:                                               ; preds = %1
  %19 = getelementptr inbounds %class.JvmtiDeferredEvent, ptr %4, i32 0, i32 1
  %20 = getelementptr inbounds %struct.anon.10, ptr %19, i32 0, i32 0
  %21 = load ptr, ptr %20, align 8
  %22 = icmp eq ptr %21, null
  br i1 %22, label %23, label %24

23:                                               ; preds = %18
  br label %28

24:                                               ; preds = %18
  %25 = getelementptr inbounds %class.JvmtiDeferredEvent, ptr %4, i32 0, i32 1
  %26 = getelementptr inbounds %struct.anon.10, ptr %25, i32 0, i32 0
  %27 = load ptr, ptr %26, align 8
  br label %28

28:                                               ; preds = %24, %23
  %29 = phi ptr [ @.str.7, %23 ], [ %27, %24 ]
  %30 = getelementptr inbounds %class.JvmtiDeferredEvent, ptr %4, i32 0, i32 1
  %31 = getelementptr inbounds %struct.anon.10, ptr %30, i32 0, i32 1
  %32 = load ptr, ptr %31, align 8
  %33 = getelementptr inbounds %class.JvmtiDeferredEvent, ptr %4, i32 0, i32 1
  %34 = getelementptr inbounds %struct.anon.10, ptr %33, i32 0, i32 2
  %35 = load ptr, ptr %34, align 8
  call void @_ZN11JvmtiExport36post_dynamic_code_generated_internalEPKcPKvS3_(ptr noundef %29, ptr noundef %32, ptr noundef %35)
  %36 = getelementptr inbounds %class.JvmtiDeferredEvent, ptr %4, i32 0, i32 1
  %37 = getelementptr inbounds %struct.anon.10, ptr %36, i32 0, i32 0
  %38 = load ptr, ptr %37, align 8
  %39 = icmp ne ptr %38, null
  br i1 %39, label %40, label %44

40:                                               ; preds = %28
  %41 = getelementptr inbounds %class.JvmtiDeferredEvent, ptr %4, i32 0, i32 1
  %42 = getelementptr inbounds %struct.anon.10, ptr %41, i32 0, i32 0
  %43 = load ptr, ptr %42, align 8
  call void @_ZN2os4freeEPv(ptr noundef %43)
  br label %44

44:                                               ; preds = %40, %28
  br label %70

45:                                               ; preds = %1
  %46 = getelementptr inbounds %class.JvmtiDeferredEvent, ptr %4, i32 0, i32 1
  %47 = getelementptr inbounds %struct.anon.11, ptr %46, i32 0, i32 0
  %48 = load ptr, ptr %47, align 8
  %49 = icmp eq ptr %48, null
  br i1 %49, label %50, label %51

50:                                               ; preds = %45
  br label %55

51:                                               ; preds = %45
  %52 = getelementptr inbounds %class.JvmtiDeferredEvent, ptr %4, i32 0, i32 1
  %53 = getelementptr inbounds %struct.anon.11, ptr %52, i32 0, i32 0
  %54 = load ptr, ptr %53, align 8
  br label %55

55:                                               ; preds = %51, %50
  %56 = phi ptr [ @.str.8, %50 ], [ %54, %51 ]
  call void @_ZN11JvmtiExport26post_class_unload_internalEPKc(ptr noundef %56)
  %57 = getelementptr inbounds %class.JvmtiDeferredEvent, ptr %4, i32 0, i32 1
  %58 = getelementptr inbounds %struct.anon.11, ptr %57, i32 0, i32 0
  %59 = load ptr, ptr %58, align 8
  %60 = icmp ne ptr %59, null
  br i1 %60, label %61, label %65

61:                                               ; preds = %55
  %62 = getelementptr inbounds %class.JvmtiDeferredEvent, ptr %4, i32 0, i32 1
  %63 = getelementptr inbounds %struct.anon.11, ptr %62, i32 0, i32 0
  %64 = load ptr, ptr %63, align 8
  call void @_ZN2os4freeEPv(ptr noundef %64)
  br label %65

65:                                               ; preds = %61, %55
  br label %70

66:                                               ; preds = %1
  br label %67

67:                                               ; preds = %66
  %68 = load ptr, ptr @g_assert_poison, align 8
  store i8 88, ptr %68, align 1
  call void @_Z28report_should_not_reach_herePKci(ptr noundef @.str.6, i32 noundef 999) #11
  unreachable

69:                                               ; No predecessors!
  br label %70

70:                                               ; preds = %69, %65, %44, %11, %7
  ret void
}