; Function Attrs: mustprogress nounwind uwtable
define hidden void @_ZN18JvmtiDeferredEvent4postEv(ptr nocapture noundef nonnull readonly align 8 dereferenceable(32) %0) local_unnamed_addr #0 align 2 {
  %2 = load i32, ptr %0, align 8
  switch i32 %2, label %27 [
    i32 1, label %3
    i32 2, label %6
    i32 3, label %11
    i32 4, label %21
  ]

3:                                                ; preds = %1
  %4 = getelementptr inbounds i8, ptr %0, i64 8
  %5 = load ptr, ptr %4, align 8
  tail call void @_ZN11JvmtiExport25post_compiled_method_loadEP7nmethod(ptr noundef %5) #17
  br label %29

6:                                                ; preds = %1
  %7 = getelementptr inbounds i8, ptr %0, i64 8
  %8 = load ptr, ptr %7, align 8
  %9 = getelementptr inbounds i8, ptr %0, i64 16
  %10 = load ptr, ptr %9, align 8
  tail call void @_ZN11JvmtiExport27post_compiled_method_unloadEP10_jmethodIDPKv(ptr noundef %8, ptr noundef %10) #17
  br label %29

11:                                               ; preds = %1
  %12 = getelementptr inbounds i8, ptr %0, i64 8
  %13 = load ptr, ptr %12, align 8
  %14 = icmp eq ptr %13, null
  %spec.select = select i1 %14, ptr @.str.7, ptr %13
  %15 = getelementptr inbounds i8, ptr %0, i64 16
  %16 = load ptr, ptr %15, align 8
  %17 = getelementptr inbounds i8, ptr %0, i64 24
  %18 = load ptr, ptr %17, align 8
  tail call void @_ZN11JvmtiExport36post_dynamic_code_generated_internalEPKcPKvS3_(ptr noundef nonnull %spec.select, ptr noundef %16, ptr noundef %18) #17
  %19 = load ptr, ptr %12, align 8
  %.not5 = icmp eq ptr %19, null
  br i1 %.not5, label %29, label %20

20:                                               ; preds = %11
  tail call void @_ZN2os4freeEPv(ptr noundef nonnull %19) #17
  br label %29

21:                                               ; preds = %1
  %22 = getelementptr inbounds i8, ptr %0, i64 8
  %23 = load ptr, ptr %22, align 8
  %24 = icmp eq ptr %23, null
  %spec.select6 = select i1 %24, ptr @.str.8, ptr %23
  tail call void @_ZN11JvmtiExport26post_class_unload_internalEPKc(ptr noundef nonnull %spec.select6) #17
  %25 = load ptr, ptr %22, align 8
  %.not = icmp eq ptr %25, null
  br i1 %.not, label %29, label %26

26:                                               ; preds = %21
  tail call void @_ZN2os4freeEPv(ptr noundef nonnull %25) #17
  br label %29

27:                                               ; preds = %1
  %28 = load ptr, ptr @g_assert_poison, align 8
  store i8 88, ptr %28, align 1
  tail call void @_Z28report_should_not_reach_herePKci(ptr noundef nonnull @.str.6, i32 noundef 999) #18
  unreachable

29:                                               ; preds = %21, %26, %11, %20, %6, %3
  ret void
}